target datalayout = "e-m:e-p270:32:32-p271:32:32-p272:64:64-i64:64-i128:128-f80:128-n8:16:32:64-S128"
target triple = "x86_64-pc-linux-gnu"

%struct._object = type { %union.anon, ptr }
%union.anon = type { i64 }
%struct.anon = type { i32, i32 }

@.str.36 = private unnamed_addr constant [40 x i8] c"check_pyobject_forbidden_bytes_is_freed\00", align 1
@PyExc_AssertionError = external global ptr, align 8
@_Py_NoneStruct = external global %struct._object, align 8
@.str.220 = private unnamed_addr constant [12 x i8] c"refcnt >= 0\00", align 1
@.str.221 = private unnamed_addr constant [30 x i8] c"../cpython/Include/refcount.h\00", align 1
@__PRETTY_FUNCTION__.Py_SET_REFCNT = private unnamed_addr constant [43 x i8] c"void Py_SET_REFCNT(PyObject *, Py_ssize_t)\00", align 1
@.str.222 = private unnamed_addr constant [28 x i8] c"object is not seen as freed\00", align 1

; Function Attrs: alwaysinline nounwind uwtable
define internal i32 @_Py_IsImmortal(ptr noundef %0) #6 {
  %2 = alloca ptr, align 8
  store ptr %0, ptr %2, align 8, !tbaa !3
  %3 = load ptr, ptr %2, align 8, !tbaa !3
  %4 = getelementptr inbounds nuw %struct._object, ptr %3, i32 0, i32 0
  %5 = getelementptr inbounds nuw %struct.anon, ptr %4, i32 0, i32 0
  %6 = load i32, ptr %5, align 8, !tbaa !34
  %7 = icmp slt i32 %6, 0
  %8 = zext i1 %7 to i32
  ret i32 %8
}

; Function Attrs: nounwind uwtable
define internal ptr @test_pyobject_is_freed(ptr noundef %0, ptr noundef %1) #0 {
  %3 = alloca ptr, align 8
  %4 = alloca ptr, align 8
  %5 = alloca ptr, align 8
  store ptr %0, ptr %4, align 8, !tbaa !46
  store ptr %1, ptr %5, align 8, !tbaa !3
  %6 = load ptr, ptr %5, align 8, !tbaa !3
  %7 = call i32 @_PyObject_IsFreed(ptr noundef %6)
  %8 = icmp ne i32 %7, 0
  br i1 %8, label %11, label %9

9:                                                ; preds = %2
  %10 = load ptr, ptr @PyExc_AssertionError, align 8, !tbaa !3
  call void @PyErr_SetString(ptr noundef %10, ptr noundef @.str.222)
  store ptr null, ptr %3, align 8
  br label %12

11:                                               ; preds = %2
  store ptr @_Py_NoneStruct, ptr %3, align 8
  br label %12

12:                                               ; preds = %11, %9
  %13 = load ptr, ptr %3, align 8
  ret ptr %13
}

; Function Attrs: inlinehint nounwind uwtable
define internal void @Py_SET_REFCNT(ptr noundef %0, i64 noundef %1) #3 {
  %3 = alloca ptr, align 8
  %4 = alloca i64, align 8
  store ptr %0, ptr %3, align 8, !tbaa !3
  store i64 %1, ptr %4, align 8, !tbaa !27
  %5 = load i64, ptr %4, align 8, !tbaa !27
  %6 = icmp sge i64 %5, 0
  br i1 %6, label %7, label %8

7:                                                ; preds = %2
  br label %10

8:                                                ; preds = %2
  call void @__assert_fail(ptr noundef @.str.220, ptr noundef @.str.221, i32 noundef 146, ptr noundef @__PRETTY_FUNCTION__.Py_SET_REFCNT) #11
  unreachable

9:                                                ; No predecessors!
  br label %10

10:                                               ; preds = %9, %7
  %11 = load ptr, ptr %3, align 8, !tbaa !3
  %12 = call i32 @_Py_IsImmortal(ptr noundef %11)
  %13 = icmp ne i32 %12, 0
  br i1 %13, label %14, label %15

14:                                               ; preds = %10
  br label %21

15:                                               ; preds = %10
  %16 = load i64, ptr %4, align 8, !tbaa !27
  %17 = trunc i64 %16 to i32
  %18 = load ptr, ptr %3, align 8, !tbaa !3
  %19 = getelementptr inbounds nuw %struct._object, ptr %18, i32 0, i32 0
  %20 = getelementptr inbounds nuw %struct.anon, ptr %19, i32 0, i32 0
  store i32 %17, ptr %20, align 8, !tbaa !34
  br label %21

21:                                               ; preds = %15, %14
  ret void
}

; Function Attrs: nounwind uwtable
define internal ptr @check_pyobject_forbidden_bytes_is_freed(ptr noundef %0, ptr noundef %1) #0 {
  %3 = alloca ptr, align 8
  %4 = alloca ptr, align 8
  %5 = alloca ptr, align 8
  %6 = alloca ptr, align 8
  %7 = alloca i32, align 4
  store ptr %0, ptr %4, align 8, !tbaa !3
  store ptr %1, ptr %5, align 8, !tbaa !3
  call void @llvm.lifetime.start.p0(i64 8, ptr %6) #10
  %8 = call ptr @PyObject_Malloc(i64 noundef 8)
  store ptr %8, ptr %6, align 8, !tbaa !3
  %9 = load ptr, ptr %6, align 8, !tbaa !3
  %10 = icmp eq ptr %9, null
  br i1 %10, label %11, label %12

11:                                               ; preds = %2
  store ptr null, ptr %3, align 8
  store i32 1, ptr %7, align 4
  br label %16

12:                                               ; preds = %2
  %13 = load ptr, ptr %6, align 8, !tbaa !3
  call void @Py_SET_REFCNT(ptr noundef %13, i64 noundef 1)
  %14 = load ptr, ptr %6, align 8, !tbaa !3
  %15 = call ptr @test_pyobject_is_freed(ptr noundef @.str.36, ptr noundef %14)
  store ptr %15, ptr %3, align 8
  store i32 1, ptr %7, align 4
  br label %16

16:                                               ; preds = %12, %11
  call void @llvm.lifetime.end.p0(i64 8, ptr %6) #10
  %17 = load ptr, ptr %3, align 8
  ret ptr %17
}